; Function Attrs: nounwind uwtable
define internal i32 @acpt_read(ptr noundef %0, ptr noundef %1, i32 noundef %2) #1 {
  tail call void @BIO_clear_flags(ptr noundef %0, i32 noundef 15) #7
  %4 = getelementptr inbounds nuw i8, ptr %0, i64 64
  %5 = load ptr, ptr %4, align 8, !tbaa !3
  %6 = getelementptr inbounds nuw i8, ptr %0, i64 72
  br label %7

7:                                                ; preds = %10, %3
  %8 = load ptr, ptr %6, align 8, !tbaa !17
  %9 = icmp eq ptr %8, null
  br i1 %9, label %10, label %13

10:                                               ; preds = %7
  %11 = tail call fastcc i32 @acpt_state(ptr noundef nonnull %0, ptr noundef %5)
  %12 = icmp slt i32 %11, 1
  br i1 %12, label %.loopexit, label %7, !llvm.loop !20

13:                                               ; preds = %7
  %14 = tail call i32 @BIO_read(ptr noundef nonnull %8, ptr noundef %1, i32 noundef %2) #7
  tail call void @BIO_copy_next_retry(ptr noundef nonnull %0) #7
  br label %.loopexit

.loopexit:                                        ; preds = %10, %13
  %.0 = phi i32 [ %14, %13 ], [ %11, %10 ]
  ret i32 %.0
}